; Function Attrs: mustprogress uwtable
define void @_ZNK6icu_779SpoofImpl11getNumericsERKNS_13UnicodeStringERNS_10UnicodeSetER10UErrorCode(ptr noundef nonnull readnone align 8 captures(none) dereferenceable(44) %0, ptr noundef nonnull align 8 dereferenceable(64) %1, ptr noundef nonnull align 8 dereferenceable(200) %2, ptr noundef nonnull readnone align 4 captures(none) dereferenceable(4) %3) local_unnamed_addr #1 align 2 {
  %5 = tail call noundef nonnull align 8 dereferenceable(200) ptr @_ZN6icu_7710UnicodeSet5clearEv(ptr noundef nonnull align 8 dereferenceable(200) %2)
  %6 = getelementptr inbounds nuw i8, ptr %1, i64 8
  %7 = getelementptr inbounds nuw i8, ptr %1, i64 12
  %8 = load i16, ptr %6, align 8, !tbaa !38
  %9 = icmp slt i16 %8, 0
  %10 = ashr i16 %8, 5
  %11 = sext i16 %10 to i32
  %12 = load i32, ptr %7, align 4
  %13 = select i1 %9, i32 %12, i32 %11
  %14 = icmp sgt i32 %13, 0
  br i1 %14, label %.lr.ph, label %._crit_edge

._crit_edge:                                      ; preds = %23, %4
  ret void

.lr.ph:                                           ; preds = %4, %23
  %.010 = phi i32 [ %26, %23 ], [ 0, %4 ]
  %15 = tail call noundef i32 @_ZNK6icu_7713UnicodeString8char32AtEi(ptr noundef nonnull align 8 dereferenceable(64) %1, i32 noundef %.010)
  %16 = tail call signext i8 @u_charType_77(i32 noundef %15)
  %17 = icmp eq i8 %16, 9
  br i1 %17, label %18, label %23

18:                                               ; preds = %.lr.ph
  %19 = tail call double @u_getNumericValue_77(i32 noundef %15)
  %20 = fptosi double %19 to i32
  %21 = sub nsw i32 %15, %20
  %22 = tail call noundef nonnull align 8 dereferenceable(200) ptr @_ZN6icu_7710UnicodeSet3addEi(ptr noundef nonnull align 8 dereferenceable(200) %2, i32 noundef %21)
  br label %23

23:                                               ; preds = %.lr.ph, %18
  %24 = icmp ult i32 %15, 65536
  %25 = select i1 %24, i32 1, i32 2
  %26 = add nuw nsw i32 %25, %.010
  %27 = load i16, ptr %6, align 8, !tbaa !38
  %28 = icmp slt i16 %27, 0
  %29 = ashr i16 %27, 5
  %30 = sext i16 %29 to i32
  %31 = load i32, ptr %7, align 4
  %32 = select i1 %28, i32 %31, i32 %30
  %33 = icmp slt i32 %26, %32
  br i1 %33, label %.lr.ph, label %._crit_edge, !llvm.loop !47
}